(dp0
S'METTS MARK'
p1
(dp2
S'percent_emails_from_poi'
p3
F3.45
sS'percent_emails_to_poi'
p4
F4.71
sS'bonus'
p5
F600000.0
sS'total_stock_value'
p6
F585062.0
sS'shared_receipt_with_poi'
p7
F702.0
sS'exercised_stock_options'
p8
F0.0
sS'poi'
p9
I00
ssS'BAXTER JOHN C'
p10
(dp11
g3
F19.51
sg4
F2.89
sg5
F1200000.0
sg6
F10623258.0
sg7
F740.5
sg8
F6680544.0
sg9
I00
ssS'ELLIOTT STEVEN'
p12
(dp13
g3
F19.51
sg4
F2.89
sg5
F350000.0
sg6
F6678735.0
sg7
F740.5
sg8
F4890344.0
sg9
I00
ssS'CORDES WILLIAM R'
p14
(dp15
g3
F0.0
sg4
F1.31
sg5
F0.0
sg6
F1038185.0
sg7
F58.0
sg8
F651850.0
sg9
I00
ssS'HANNON KEVIN P'
p16
(dp17
g3
F65.62
sg4
F3.06
sg5
F1500000.0
sg6
F6391065.0
sg7
F1035.0
sg8
F5538001.0
sg9
I01
ssS'MORDAUNT KRISTINA M'
p18
(dp19
g3
F19.51
sg4
F2.89
sg5
F325000.0
sg6
F208510.0
sg7
F740.5
sg8
F0.0
sg9
I00
ssS'MEYER ROCKFORD G'
p20
(dp21
g3
F0.0
sg4
F0.0
sg5
F0.0
sg6
F955873.0
sg7
F22.0
sg8
F493489.0
sg9
I00
ssS'MCMAHON JEFFREY'
p22
(dp23
g3
F54.17
sg4
F2.46
sg5
F2600000.0
sg6
F1662855.0
sg7
F2228.0
sg8
F1104054.0
sg9
I00
ssS'HORTON STANLEY C'
p24
(dp25
g3
F1.4
sg4
F1.87
sg5
F0.0
sg6
F7256648.0
sg7
F1074.0
sg8
F5210569.0
sg9
I00
ssS'PIPER GREGORY F'
p26
(dp27
g3
F21.62
sg4
F4.93
sg5
F400000.0
sg6
F880290.0
sg7
F742.0
sg8
F880290.0
sg9
I00
ssS'HUMPHREY GENE E'
p28
(dp29
g3
F100.0
sg4
F7.81
sg5
F0.0
sg6
F2282768.0
sg7
F119.0
sg8
F2282768.0
sg9
I00
ssS'UMANOFF ADAM S'
p30
(dp31
g3
F0.0
sg4
F10.81
sg5
F788750.0
sg6
F0.0
sg7
F41.0
sg8
F0.0
sg9
I00
ssS'BLACHMAN JEREMY M'
p32
(dp33
g3
F14.29
sg4
F1.01
sg5
F850000.0
sg6
F954354.0
sg7
F2326.0
sg8
F765313.0
sg9
I00
ssS'SUNDE MARTIN'
p34
(dp35
g3
F34.21
sg4
F1.4
sg5
F700000.0
sg6
F698920.0
sg7
F2565.0
sg8
F0.0
sg9
I00
ssS'GIBBS DANA R'
p36
(dp37
g3
F0.0
sg4
F0.0
sg5
F0.0
sg6
F2218275.0
sg7
F23.0
sg8
F2218275.0
sg9
I00
ssS'LOWRY CHARLES P'
p38
(dp39
g3
F19.51
sg4
F2.89
sg5
F0.0
sg6
F372205.0
sg7
F740.5
sg8
F372205.0
sg9
I00
ssS'COLWELL WESLEY'
p40
(dp41
g3
F27.5
sg4
F13.65
sg5
F1200000.0
sg6
F698242.0
sg7
F1132.0
sg8
F0.0
sg9
I01
ssS'MULLER MARK S'
p42
(dp43
g3
F0.0
sg4
F8.82
sg5
F1100000.0
sg6
F1416848.0
sg7
F114.0
sg8
F1056320.0
sg9
I00
ssS'JACKSON CHARLENE R'
p44
(dp45
g3
F33.93
sg4
F9.69
sg5
F250000.0
sg6
F725735.0
sg7
F117.0
sg8
F185063.0
sg9
I00
ssS'WESTFAHL RICHARD K'
p46
(dp47
g3
F19.51
sg4
F2.89
sg5
F0.0
sg6
F384930.0
sg7
F740.5
sg8
F0.0
sg9
I00
ssS'WALTERS GARETH W'
p48
(dp49
g3
F19.51
sg4
F2.89
sg5
F0.0
sg6
F1030329.0
sg7
F740.5
sg8
F1030329.0
sg9
I00
ssS'WALLS JR ROBERT H'
p50
(dp51
g3
F0.0
sg4
F2.53
sg5
F850000.0
sg6
F5898997.0
sg7
F215.0
sg8
F4346544.0
sg9
I00
ssS'KITCHEN LOUISE'
p52
(dp53
g3
F11.23
sg4
F3.02
sg5
F3100000.0
sg6
F547143.0
sg7
F3669.0
sg8
F81042.0
sg9
I00
ssS'CHAN RONNIE'
p54
(dp55
g3
F19.51
sg4
F2.89
sg5
F0.0
sg6
F0.0
sg7
F740.5
sg8
F0.0
sg9
I00
ssS'BELFER ROBERT'
p56
(dp57
g3
F19.51
sg4
F2.89
sg5
F0.0
sg6
F-44093.0
sg7
F740.5
sg8
F3285.0
sg9
I00
ssS'SHANKMAN JEFFREY A'
p58
(dp59
g3
F3.1
sg4
F2.92
sg5
F2000000.0
sg6
F2072035.0
sg7
F1730.0
sg8
F1441898.0
sg9
I00
ssS'WODRASKA JOHN'
p60
(dp61
g3
F19.51
sg4
F2.89
sg5
F0.0
sg6
F0.0
sg7
F740.5
sg8
F0.0
sg9
I00
ssS'BERGSIEKER RICHARD P'
p62
(dp63
g3
F0.0
sg4
F1.04
sg5
F250000.0
sg6
F659249.0
sg7
F233.0
sg8
F0.0
sg9
I00
ssS'URQUHART JOHN A'
p64
(dp65
g3
F19.51
sg4
F2.89
sg5
F0.0
sg6
F0.0
sg7
F740.5
sg8
F0.0
sg9
I00
ssS'BIBI PHILIPPE A'
p66
(dp67
g3
F20.0
sg4
F1.43
sg5
F1000000.0
sg6
F1843816.0
sg7
F1336.0
sg8
F1465734.0
sg9
I00
ssS'PIRO JIM'
p68
(dp69
g3
F6.25
sg4
F0.0
sg5
F0.0
sg6
F47304.0
sg7
F3.0
sg8
F0.0
sg9
I00
ssS'RIEKER PAULA H'
p70
(dp71
g3
F58.54
sg4
F2.64
sg5
F700000.0
sg6
F1918887.0
sg7
F1258.0
sg8
F1635238.0
sg9
I01
ssS'WHALEY DAVID A'
p72
(dp73
g3
F19.51
sg4
F2.89
sg5
F0.0
sg6
F98718.0
sg7
F740.5
sg8
F98718.0
sg9
I00
ssS'BECK SALLY W'
p74
(dp75
g3
F8.89
sg4
F1.97
sg5
F700000.0
sg6
F126027.0
sg7
F2639.0
sg8
F0.0
sg9
I00
ssS'HAUG DAVID L'
p76
(dp77
g3
F36.84
sg4
F0.7
sg5
F0.0
sg6
F2217299.0
sg7
F471.0
sg8
F0.0
sg9
I00
ssS'ECHOLS JOHN B'
p78
(dp79
g3
F19.51
sg4
F2.89
sg5
F200000.0
sg6
F1008941.0
sg7
F740.5
sg8
F601438.0
sg9
I00
ssS'MENDELSOHN JOHN'
p80
(dp81
g3
F19.51
sg4
F2.89
sg5
F0.0
sg6
F0.0
sg7
F740.5
sg8
F0.0
sg9
I00
ssS'HICKERSON GARY J'
p82
(dp83
g3
F3.7
sg4
F3.03
sg5
F1700000.0
sg6
F441096.0
sg7
F900.0
sg8
F0.0
sg9
I00
ssS'CLINE KENNETH W'
p84
(dp85
g3
F19.51
sg4
F2.89
sg5
F0.0
sg6
F189518.0
sg7
F740.5
sg8
F0.0
sg9
I00
ssS'LEWIS RICHARD'
p86
(dp87
g3
F0.0
sg4
F1.05
sg5
F0.0
sg6
F850477.0
sg7
F739.0
sg8
F850477.0
sg9
I00
ssS'HAYES ROBERT E'
p88
(dp89
g3
F0.0
sg4
F3.17
sg5
F0.0
sg6
F151418.0
sg7
F50.0
sg8
F0.0
sg9
I00
ssS'KOPPER MICHAEL J'
p90
(dp91
g3
F19.51
sg4
F2.89
sg5
F800000.0
sg6
F985032.0
sg7
F740.5
sg8
F0.0
sg9
I01
ssS'LEFF DANIEL P'
p92
(dp93
g3
F22.22
sg4
F2.37
sg5
F1000000.0
sg6
F360528.0
sg7
F2672.0
sg8
F0.0
sg9
I00
ssS'LAVORATO JOHN J'
p94
(dp95
g3
F15.9
sg4
F7.27
sg5
F8000000.0
sg6
F5167144.0
sg7
F3962.0
sg8
F4158995.0
sg9
I00
ssS'BERBERIAN DAVID'
p96
(dp97
g3
F19.51
sg4
F2.89
sg5
F0.0
sg6
F2493616.0
sg7
F740.5
sg8
F1624396.0
sg9
I00
ssS'DETMERING TIMOTHY J'
p98
(dp99
g3
F19.51
sg4
F2.89
sg5
F425000.0
sg6
F2027865.0
sg7
F740.5
sg8
F2027865.0
sg9
I00
ssS'WAKEHAM JOHN'
p100
(dp101
g3
F19.51
sg4
F2.89
sg5
F0.0
sg6
F0.0
sg7
F740.5
sg8
F0.0
sg9
I00
ssS'POWERS WILLIAM'
p102
(dp103
g3
F0.0
sg4
F0.0
sg5
F0.0
sg6
F0.0
sg7
F12.0
sg8
F0.0
sg9
I00
ssS'GOLD JOSEPH'
p104
(dp105
g3
F19.51
sg4
F2.89
sg5
F750000.0
sg6
F877611.0
sg7
F740.5
sg8
F436515.0
sg9
I00
ssS'BANNANTINE JAMES M'
p106
(dp107
g3
F0.0
sg4
F6.89
sg5
F0.0
sg6
F5243487.0
sg7
F465.0
sg8
F4046157.0
sg9
I00
ssS'DUNCAN JOHN H'
p108
(dp109
g3
F19.51
sg4
F2.89
sg5
F0.0
sg6
F371750.0
sg7
F740.5
sg8
F371750.0
sg9
I00
ssS'SHAPIRO RICHARD S'
p110
(dp111
g3
F5.35
sg4
F0.49
sg5
F650000.0
sg6
F987001.0
sg7
F4527.0
sg8
F607837.0
sg9
I00
ssS'SHERRIFF JOHN R'
p112
(dp113
g3
F25.0
sg4
F0.88
sg5
F1500000.0
sg6
F3128982.0
sg7
F2103.0
sg8
F1835558.0
sg9
I00
ssS'SHELBY REX'
p114
(dp115
g3
F35.9
sg4
F5.78
sg5
F200000.0
sg6
F2493616.0
sg7
F91.0
sg8
F1624396.0
sg9
I01
ssS'LEMAISTRE CHARLES'
p116
(dp117
g3
F19.51
sg4
F2.89
sg5
F0.0
sg6
F412878.0
sg7
F740.5
sg8
F412878.0
sg9
I00
ssS'DEFFNER JOSEPH M'
p118
(dp119
g3
F5.41
sg4
F16.11
sg5
F600000.0
sg6
F159211.0
sg7
F552.0
sg8
F17378.0
sg9
I00
ssS'KISHKILL JOSEPH G'
p120
(dp121
g3
F19.51
sg4
F2.89
sg5
F0.0
sg6
F1034346.0
sg7
F740.5
sg8
F0.0
sg9
I00
ssS'WHALLEY LAWRENCE G'
p122
(dp123
g3
F4.32
sg4
F3.09
sg5
F3000000.0
sg6
F6079137.0
sg7
F3920.0
sg8
F3282960.0
sg9
I00
ssS'MCCARTY DANNY J'
p124
(dp125
g3
F0.93
sg4
F1.74
sg5
F0.0
sg6
F758931.0
sg7
F508.0
sg8
F664375.0
sg9
I00
ssS'MCCONNELL MICHAEL S'
p126
(dp127
g3
F7.08
sg4
F2.76
sg5
F1100000.0
sg6
F3101279.0
sg7
F2189.0
sg8
F1623010.0
sg9
I00
ssS'DELAINEY DAVID W'
p128
(dp129
g3
F19.84
sg4
F2.13
sg5
F3000000.0
sg6
F3614261.0
sg7
F2097.0
sg8
F2291113.0
sg9
I01
ssS'SULLIVAN-SHAKLOVITZ COLLEEN'
p130
(dp131
g3
F19.51
sg4
F2.89
sg5
F100000.0
sg6
F1362375.0
sg7
F740.5
sg8
F1362375.0
sg9
I00
ssS'WROBEL BRUCE'
p132
(dp133
g3
F19.51
sg4
F2.89
sg5
F0.0
sg6
F139130.0
sg7
F740.5
sg8
F139130.0
sg9
I00
ssS'LINDHOLM TOD A'
p134
(dp135
g3
F19.51
sg4
F2.89
sg5
F200000.0
sg6
F3064208.0
sg7
F740.5
sg8
F2549361.0
sg9
I00
ssS'MEYER JEROME J'
p136
(dp137
g3
F19.51
sg4
F2.89
sg5
F0.0
sg6
F0.0
sg7
F740.5
sg8
F0.0
sg9
I00
ssS'LAY KENNETH L'
p138
(dp139
g3
F44.44
sg4
F2.88
sg5
F7000000.0
sg6
F49110078.0
sg7
F2411.0
sg8
F34348384.0
sg9
I01
ssS'BUTTS ROBERT H'
p140
(dp141
g3
F19.51
sg4
F2.89
sg5
F750000.0
sg6
F417619.0
sg7
F740.5
sg8
F0.0
sg9
I00
ssS'OLSON CINDY K'
p142
(dp143
g3
F28.85
sg4
F1.69
sg5
F750000.0
sg6
F2606763.0
sg7
F856.0
sg8
F1637034.0
sg9
I00
ssS'MCDONALD REBECCA'
p144
(dp145
g3
F7.69
sg4
F6.04
sg5
F0.0
sg6
F1691366.0
sg7
F720.0
sg8
F757301.0
sg9
I00
ssS'CUMBERLAND MICHAEL S'
p146
(dp147
g3
F19.51
sg4
F2.89
sg5
F325000.0
sg6
F207940.0
sg7
F740.5
sg8
F0.0
sg9
I00
ssS'GAHN ROBERT S'
p148
(dp149
g3
F19.51
sg4
F2.89
sg5
F509870.0
sg6
F318607.0
sg7
F740.5
sg8
F83237.0
sg9
I00
ssS'MCCLELLAN GEORGE'
p150
(dp151
g3
F0.0
sg4
F2.98
sg5
F900000.0
sg6
F947861.0
sg7
F1469.0
sg8
F506765.0
sg9
I00
ssS'HERMANN ROBERT J'
p152
(dp153
g3
F19.51
sg4
F2.89
sg5
F700000.0
sg6
F668132.0
sg7
F740.5
sg8
F187500.0
sg9
I00
ssS'SCRIMSHAW MATTHEW'
p154
(dp155
g3
F19.51
sg4
F2.89
sg5
F0.0
sg6
F759557.0
sg7
F740.5
sg8
F759557.0
sg9
I00
ssS'GATHMANN WILLIAM D'
p156
(dp157
g3
F19.51
sg4
F2.89
sg5
F0.0
sg6
F1945360.0
sg7
F740.5
sg8
F1753766.0
sg9
I00
ssS'HAEDICKE MARK E'
p158
(dp159
g3
F3.14
sg4
F4.49
sg5
F1150000.0
sg6
F803094.0
sg7
F1847.0
sg8
F608750.0
sg9
I00
ssS'BOWEN JR RAYMOND M'
p160
(dp161
g3
F55.56
sg4
F7.53
sg5
F1350000.0
sg6
F252055.0
sg7
F1593.0
sg8
F0.0
sg9
I01
ssS'GILLIS JOHN'
p162
(dp163
g3
F19.51
sg4
F2.89
sg5
F0.0
sg6
F85641.0
sg7
F740.5
sg8
F9803.0
sg9
I00
ssS'FITZGERALD JAY L'
p164
(dp165
g3
F50.0
sg4
F0.11
sg5
F350000.0
sg6
F1621236.0
sg7
F723.0
sg8
F664461.0
sg9
I00
ssS'MORAN MICHAEL P'
p166
(dp167
g3
F0.0
sg4
F0.0
sg5
F0.0
sg6
F221141.0
sg7
F127.0
sg8
F59539.0
sg9
I00
ssS'REDMOND BRIAN L'
p168
(dp169
g3
F22.17
sg4
F12.21
sg5
F0.0
sg6
F7890324.0
sg7
F1063.0
sg8
F7509039.0
sg9
I00
ssS'BAZELIDES PHILIP J'
p170
(dp171
g3
F19.51
sg4
F2.89
sg5
F0.0
sg6
F1599641.0
sg7
F740.5
sg8
F1599641.0
sg9
I00
ssS'BELDEN TIMOTHY N'
p172
(dp173
g3
F22.31
sg4
F2.85
sg5
F5249999.0
sg6
F1110705.0
sg7
F5521.0
sg8
F953136.0
sg9
I01
ssS'DURAN WILLIAM D'
p174
(dp175
g3
F25.0
sg4
F11.73
sg5
F750000.0
sg6
F1640910.0
sg7
F599.0
sg8
F1451869.0
sg9
I00
ssS'THORN TERENCE H'
p176
(dp177
g3
F0.0
sg4
F0.0
sg5
F0.0
sg6
F4817796.0
sg7
F73.0
sg8
F4452476.0
sg9
I00
ssS'FASTOW ANDREW S'
p178
(dp179
g3
F19.51
sg4
F2.89
sg5
F1300000.0
sg6
F1794412.0
sg7
F740.5
sg8
F0.0
sg9
I01
ssS'FOY JOE'
p180
(dp181
g3
F0.0
sg4
F0.0
sg5
F0.0
sg6
F343434.0
sg7
F2.0
sg8
F343434.0
sg9
I00
ssS'CALGER CHRISTOPHER F'
p182
(dp183
g3
F17.36
sg4
F7.66
sg5
F1250000.0
sg6
F126027.0
sg7
F2188.0
sg8
F0.0
sg9
I01
ssS'RICE KENNETH D'
p184
(dp185
g3
F22.22
sg4
F4.64
sg5
F1750000.0
sg6
F22542539.0
sg7
F864.0
sg8
F19794175.0
sg9
I01
ssS'KAMINSKI WINCENTY J'
p186
(dp187
g3
F1.19
sg4
F0.89
sg5
F400000.0
sg6
F976037.0
sg7
F583.0
sg8
F850010.0
sg9
I00
ssS'LOCKHART EUGENE E'
p188
(dp189
g3
F19.51
sg4
F2.89
sg5
F0.0
sg6
F0.0
sg7
F740.5
sg8
F0.0
sg9
I00
ssS'COX DAVID'
p190
(dp191
g3
F12.12
sg4
F0.0
sg5
F800000.0
sg6
F495633.0
sg7
F71.0
sg8
F117551.0
sg9
I00
ssS'OVERDYKE JR JERE C'
p192
(dp193
g3
F19.51
sg4
F2.89
sg5
F0.0
sg6
F7307594.0
sg7
F740.5
sg8
F5266578.0
sg9
I00
ssS'PEREIRA PAULO V. FERRAZ'
p194
(dp195
g3
F19.51
sg4
F2.89
sg5
F0.0
sg6
F0.0
sg7
F740.5
sg8
F0.0
sg9
I00
ssS'STABLER FRANK'
p196
(dp197
g3
F19.51
sg4
F2.89
sg5
F500000.0
sg6
F511734.0
sg7
F740.5
sg8
F0.0
sg9
I00
ssS'SKILLING JEFFREY K'
p198
(dp199
g3
F27.78
sg4
F2.43
sg5
F5600000.0
sg6
F26093672.0
sg7
F2042.0
sg8
F19250000.0
sg9
I01
ssS'BLAKE JR. NORMAN P'
p200
(dp201
g3
F19.51
sg4
F2.89
sg5
F0.0
sg6
F0.0
sg7
F740.5
sg8
F0.0
sg9
I00
ssS'SHERRICK JEFFREY B'
p202
(dp203
g3
F72.0
sg4
F6.36
sg5
F0.0
sg6
F1832468.0
sg7
F583.0
sg8
F1426469.0
sg9
I00
ssS'PRENTICE JAMES'
p204
(dp205
g3
F19.51
sg4
F2.89
sg5
F0.0
sg6
F1095040.0
sg7
F740.5
sg8
F886231.0
sg9
I00
ssS'GRAY RODNEY'
p206
(dp207
g3
F19.51
sg4
F2.89
sg5
F0.0
sg6
F0.0
sg7
F740.5
sg8
F0.0
sg9
I00
ssS'PICKERING MARK R'
p208
(dp209
g3
F0.0
sg4
F0.78
sg5
F300000.0
sg6
F28798.0
sg7
F728.0
sg8
F28798.0
sg9
I00
ssS'NOLES JAMES L'
p210
(dp211
g3
F19.51
sg4
F2.89
sg5
F0.0
sg6
F368705.0
sg7
F740.5
sg8
F0.0
sg9
I00
ssS'KEAN STEVEN J'
p212
(dp213
g3
F5.73
sg4
F1.1
sg5
F1000000.0
sg6
F6153642.0
sg7
F3639.0
sg8
F2022048.0
sg9
I00
ssS'FOWLER PEGGY'
p214
(dp215
g3
F0.0
sg4
F0.0
sg5
F0.0
sg6
F1884748.0
sg7
F10.0
sg8
F1324578.0
sg9
I00
ssS'WASAFF GEORGE'
p216
(dp217
g3
F23.33
sg4
F5.5
sg5
F325000.0
sg6
F2056427.0
sg7
F337.0
sg8
F1668260.0
sg9
I00
ssS'WHITE JR THOMAS E'
p218
(dp219
g3
F19.51
sg4
F2.89
sg5
F450000.0
sg6
F15144123.0
sg7
F740.5
sg8
F1297049.0
sg9
I00
ssS'CHRISTODOULOU DIOMEDES'
p220
(dp221
g3
F19.51
sg4
F2.89
sg5
F0.0
sg6
F6077885.0
sg7
F740.5
sg8
F5127155.0
sg9
I00
ssS'ALLEN PHILLIP K'
p222
(dp223
g3
F2.96
sg4
F1.62
sg5
F4175000.0
sg6
F1729541.0
sg7
F1407.0
sg8
F1729541.0
sg9
I00
ssS'SHARP VICTORIA T'
p224
(dp225
g3
F4.41
sg4
F0.77
sg5
F600000.0
sg6
F494136.0
sg7
F2477.0
sg8
F281073.0
sg9
I00
ssS'JAEDICKE ROBERT'
p226
(dp227
g3
F19.51
sg4
F2.89
sg5
F0.0
sg6
F431750.0
sg7
F740.5
sg8
F431750.0
sg9
I00
ssS'WINOKUR JR. HERBERT S'
p228
(dp229
g3
F19.51
sg4
F2.89
sg5
F0.0
sg6
F0.0
sg7
F740.5
sg8
F0.0
sg9
I00
ssS'BROWN MICHAEL'
p230
(dp231
g3
F2.44
sg4
F0.87
sg5
F0.0
sg6
F0.0
sg7
F761.0
sg8
F0.0
sg9
I00
ssS'BADUM JAMES P'
p232
(dp233
g3
F19.51
sg4
F2.89
sg5
F0.0
sg6
F257817.0
sg7
F740.5
sg8
F257817.0
sg9
I00
ssS'HUGHES JAMES A'
p234
(dp235
g3
F14.71
sg4
F4.87
sg5
F0.0
sg6
F1118394.0
sg7
F589.0
sg8
F754966.0
sg9
I00
ssS'REYNOLDS LAWRENCE'
p236
(dp237
g3
F19.51
sg4
F2.89
sg5
F100000.0
sg6
F4221891.0
sg7
F740.5
sg8
F4160672.0
sg9
I00
ssS'DIMICHELE RICHARD G'
p238
(dp239
g3
F19.51
sg4
F2.89
sg5
F1000000.0
sg6
F8317782.0
sg7
F740.5
sg8
F8191755.0
sg9
I00
ssS'BHATNAGAR SANJAY'
p240
(dp241
g3
F3.45
sg4
F0.0
sg5
F0.0
sg6
F0.0
sg7
F463.0
sg8
F2604490.0
sg9
I00
ssS'CARTER REBECCA C'
p242
(dp243
g3
F46.67
sg4
F9.29
sg5
F300000.0
sg6
F0.0
sg7
F196.0
sg8
F0.0
sg9
I00
ssS'BUCHANAN HAROLD G'
p244
(dp245
g3
F0.0
sg4
F0.0
sg5
F500000.0
sg6
F1014505.0
sg7
F23.0
sg8
F825464.0
sg9
I00
ssS'YEAP SOON'
p246
(dp247
g3
F19.51
sg4
F2.89
sg5
F0.0
sg6
F192758.0
sg7
F740.5
sg8
F192758.0
sg9
I00
ssS'MURRAY JULIA H'
p248
(dp249
g3
F4.44
sg4
F0.5
sg5
F400000.0
sg6
F597461.0
sg7
F395.0
sg8
F400478.0
sg9
I00
ssS'GARLAND C KEVIN'
p250
(dp251
g3
F61.36
sg4
F4.78
sg5
F850000.0
sg6
F896153.0
sg7
F178.0
sg8
F636246.0
sg9
I00
ssS'DODSON KEITH'
p252
(dp253
g3
F21.43
sg4
F5.68
sg5
F70000.0
sg6
F0.0
sg7
F114.0
sg8
F0.0
sg9
I00
ssS'YEAGER F SCOTT'
p254
(dp255
g3
F19.51
sg4
F2.89
sg5
F0.0
sg6
F11884758.0
sg7
F740.5
sg8
F8308552.0
sg9
I01
ssS'HIRKO JOSEPH'
p256
(dp257
g3
F19.51
sg4
F2.89
sg5
F0.0
sg6
F30766064.0
sg7
F740.5
sg8
F30766064.0
sg9
I01
ssS'DIETRICH JANET R'
p258
(dp259
g3
F22.22
sg4
F11.86
sg5
F600000.0
sg6
F1865087.0
sg7
F1902.0
sg8
F1550019.0
sg9
I00
ssS'DERRICK JR. JAMES V'
p260
(dp261
g3
F2.2
sg4
F2.93
sg5
F800000.0
sg6
F8831913.0
sg7
F1401.0
sg8
F8831913.0
sg9
I00
ssS'FREVERT MARK A'
p262
(dp263
g3
F28.57
sg4
F7.39
sg5
F2000000.0
sg6
F14622185.0
sg7
F2979.0
sg8
F10433518.0
sg9
I00
ssS'PAI LOU L'
p264
(dp265
g3
F19.51
sg4
F2.89
sg5
F1000000.0
sg6
F23817930.0
sg7
F740.5
sg8
F15364167.0
sg9
I00
ssS'BAY FRANKLIN R'
p266
(dp267
g3
F19.51
sg4
F2.89
sg5
F400000.0
sg6
F63014.0
sg7
F740.5
sg8
F0.0
sg9
I00
ssS'HAYSLETT RODERICK J'
p268
(dp269
g3
F3.58
sg4
F1.32
sg5
F0.0
sg6
F346663.0
sg7
F571.0
sg8
F0.0
sg9
I00
ssS'FUGH JOHN L'
p270
(dp271
g3
F19.51
sg4
F2.89
sg5
F0.0
sg6
F176378.0
sg7
F740.5
sg8
F176378.0
sg9
I00
ssS'FALLON JAMES B'
p272
(dp273
g3
F49.33
sg4
F2.39
sg5
F2500000.0
sg6
F2332399.0
sg7
F1604.0
sg8
F940257.0
sg9
I00
ssS'KOENIG MARK E'
p274
(dp275
g3
F24.59
sg4
F2.23
sg5
F700000.0
sg6
F1920055.0
sg7
F2271.0
sg8
F671737.0
sg9
I01
ssS'SAVAGE FRANK'
p276
(dp277
g3
F19.51
sg4
F2.89
sg5
F0.0
sg6
F0.0
sg7
F740.5
sg8
F0.0
sg9
I00
ssS'IZZO LAWRENCE L'
p278
(dp279
g3
F26.32
sg4
F5.65
sg5
F0.0
sg6
F5819980.0
sg7
F437.0
sg8
F2165172.0
sg9
I00
ssS'TILNEY ELIZABETH A'
p280
(dp281
g3
F57.89
sg4
F2.17
sg5
F300000.0
sg6
F1168042.0
sg7
F379.0
sg8
F591250.0
sg9
I00
ssS'MARTIN AMANDA K'
p282
(dp283
g3
F0.0
sg4
F0.53
sg5
F0.0
sg6
F2070306.0
sg7
F477.0
sg8
F2070306.0
sg9
I00
ssS'BUY RICHARD B'
p284
(dp285
g3
F6.74
sg4
F4.43
sg5
F900000.0
sg6
F3444470.0
sg7
F2333.0
sg8
F2542813.0
sg9
I00
ssS'GRAMM WENDY L'
p286
(dp287
g3
F19.51
sg4
F2.89
sg5
F0.0
sg6
F0.0
sg7
F740.5
sg8
F0.0
sg9
I00
ssS'CAUSEY RICHARD A'
p288
(dp289
g3
F24.49
sg4
F3.07
sg5
F1000000.0
sg6
F2502063.0
sg7
F1585.0
sg8
F0.0
sg9
I01
ssS'TAYLOR MITCHELL S'
p290
(dp291
g3
F0.0
sg4
F0.0
sg5
F600000.0
sg6
F3745048.0
sg7
F300.0
sg8
F3181250.0
sg9
I00
ssS'DONAHUE JR JEFFREY M'
p292
(dp293
g3
F50.0
sg4
F21.73
sg5
F800000.0
sg6
F1080988.0
sg7
F772.0
sg8
F765920.0
sg9
I00
ssS'GLISAN JR BEN F'
p294
(dp295
g3
F37.5
sg4
F5.96
sg5
F600000.0
sg6
F778546.0
sg7
F874.0
sg8
F384728.0
sg9
I01
ss.